target datalayout = "e-m:e-p270:32:32-p271:32:32-p272:64:64-i64:64-i128:128-f80:128-n8:16:32:64-S128"
target triple = "x86_64-pc-linux-gnu"

%struct.dsa_st = type { i32, i32, %struct.ffc_params_st, ptr, ptr, i32, ptr, %struct.CRYPTO_REF_COUNT, %struct.crypto_ex_data_st, ptr, ptr, ptr, ptr, i64 }
%struct.ffc_params_st = type { ptr, ptr, ptr, ptr, ptr, i64, i32, i32, i32, i32, i32, ptr, ptr, i32 }
%struct.CRYPTO_REF_COUNT = type { i32 }
%struct.crypto_ex_data_st = type { ptr, ptr }

; Function Attrs: inlinehint nounwind uwtable
define internal i32 @dsa_bn_dup_check(ptr noundef %0, ptr noundef %1) #3 {
  %3 = alloca i32, align 4
  %4 = alloca ptr, align 8
  %5 = alloca ptr, align 8
  store ptr %0, ptr %4, align 8, !tbaa !30
  store ptr %1, ptr %5, align 8, !tbaa !12
  %6 = load ptr, ptr %5, align 8, !tbaa !12
  %7 = icmp ne ptr %6, null
  br i1 %7, label %8, label %14

8:                                                ; preds = %2
  %9 = load ptr, ptr %5, align 8, !tbaa !12
  %10 = call ptr @BN_dup(ptr noundef %9)
  %11 = load ptr, ptr %4, align 8, !tbaa !30
  store ptr %10, ptr %11, align 8, !tbaa !12
  %12 = icmp eq ptr %10, null
  br i1 %12, label %13, label %14

13:                                               ; preds = %8
  store i32 0, ptr %3, align 4
  br label %15

14:                                               ; preds = %8, %2
  store i32 1, ptr %3, align 4
  br label %15

15:                                               ; preds = %14, %13
  %16 = load i32, ptr %3, align 4
  ret i32 %16
}

; Function Attrs: nounwind uwtable
define i32 @ossl_dsa_is_foreign(ptr noundef %0) #0 {
  %2 = alloca i32, align 4
  %3 = alloca ptr, align 8
  store ptr %0, ptr %3, align 8, !tbaa !3
  %4 = load ptr, ptr %3, align 8, !tbaa !3
  %5 = getelementptr inbounds nuw %struct.dsa_st, ptr %4, i32 0, i32 10
  %6 = load ptr, ptr %5, align 8, !tbaa !14
  %7 = icmp ne ptr %6, null
  br i1 %7, label %13, label %8

8:                                                ; preds = %1
  %9 = load ptr, ptr %3, align 8, !tbaa !3
  %10 = call ptr @DSA_get_method(ptr noundef %9)
  %11 = call ptr @DSA_OpenSSL()
  %12 = icmp ne ptr %10, %11
  br i1 %12, label %13, label %14

13:                                               ; preds = %8, %1
  store i32 1, ptr %2, align 4
  br label %15

14:                                               ; preds = %8
  store i32 0, ptr %2, align 4
  br label %15

15:                                               ; preds = %14, %13
  %16 = load i32, ptr %2, align 4
  ret i32 %16
}

; Function Attrs: nounwind uwtable
define ptr @ossl_dsa_dup(ptr noundef %0, i32 noundef %1) #0 {
  %3 = alloca ptr, align 8
  %4 = alloca ptr, align 8
  %5 = alloca i32, align 4
  %6 = alloca ptr, align 8
  %7 = alloca i32, align 4
  store ptr %0, ptr %4, align 8, !tbaa !3
  store i32 %1, ptr %5, align 4, !tbaa !10
  call void @llvm.lifetime.start.p0(i64 8, ptr %6) #4
  store ptr null, ptr %6, align 8, !tbaa !3
  %8 = load ptr, ptr %4, align 8, !tbaa !3
  %9 = call i32 @ossl_dsa_is_foreign(ptr noundef %8)
  %10 = icmp ne i32 %9, 0
  br i1 %10, label %11, label %12

11:                                               ; preds = %2
  store ptr null, ptr %3, align 8
  store i32 1, ptr %7, align 4
  br label %82

12:                                               ; preds = %2
  %13 = load ptr, ptr %4, align 8, !tbaa !3
  %14 = getelementptr inbounds nuw %struct.dsa_st, ptr %13, i32 0, i32 12
  %15 = load ptr, ptr %14, align 8, !tbaa !26
  %16 = call ptr @ossl_dsa_new(ptr noundef %15)
  store ptr %16, ptr %6, align 8, !tbaa !3
  %17 = icmp eq ptr %16, null
  br i1 %17, label %18, label %19

18:                                               ; preds = %12
  store ptr null, ptr %3, align 8
  store i32 1, ptr %7, align 4
  br label %82

19:                                               ; preds = %12
  %20 = load i32, ptr %5, align 4, !tbaa !10
  %21 = and i32 %20, 4
  %22 = icmp ne i32 %21, 0
  br i1 %22, label %23, label %31

23:                                               ; preds = %19
  %24 = load ptr, ptr %6, align 8, !tbaa !3
  %25 = getelementptr inbounds nuw %struct.dsa_st, ptr %24, i32 0, i32 2
  %26 = load ptr, ptr %4, align 8, !tbaa !3
  %27 = getelementptr inbounds nuw %struct.dsa_st, ptr %26, i32 0, i32 2
  %28 = call i32 @ossl_ffc_params_copy(ptr noundef %25, ptr noundef %27)
  %29 = icmp ne i32 %28, 0
  br i1 %29, label %31, label %30

30:                                               ; preds = %23
  br label %80

31:                                               ; preds = %23, %19
  %32 = load ptr, ptr %4, align 8, !tbaa !3
  %33 = getelementptr inbounds nuw %struct.dsa_st, ptr %32, i32 0, i32 5
  %34 = load i32, ptr %33, align 8, !tbaa !27
  %35 = load ptr, ptr %6, align 8, !tbaa !3
  %36 = getelementptr inbounds nuw %struct.dsa_st, ptr %35, i32 0, i32 5
  store i32 %34, ptr %36, align 8, !tbaa !27
  %37 = load i32, ptr %5, align 4, !tbaa !10
  %38 = and i32 %37, 2
  %39 = icmp ne i32 %38, 0
  br i1 %39, label %40, label %53

40:                                               ; preds = %31
  %41 = load i32, ptr %5, align 4, !tbaa !10
  %42 = and i32 %41, 4
  %43 = icmp eq i32 %42, 0
  br i1 %43, label %52, label %44

44:                                               ; preds = %40
  %45 = load ptr, ptr %6, align 8, !tbaa !3
  %46 = getelementptr inbounds nuw %struct.dsa_st, ptr %45, i32 0, i32 3
  %47 = load ptr, ptr %4, align 8, !tbaa !3
  %48 = getelementptr inbounds nuw %struct.dsa_st, ptr %47, i32 0, i32 3
  %49 = load ptr, ptr %48, align 8, !tbaa !28
  %50 = call i32 @dsa_bn_dup_check(ptr noundef %46, ptr noundef %49)
  %51 = icmp ne i32 %50, 0
  br i1 %51, label %53, label %52

52:                                               ; preds = %44, %40
  br label %80

53:                                               ; preds = %44, %31
  %54 = load i32, ptr %5, align 4, !tbaa !10
  %55 = and i32 %54, 1
  %56 = icmp ne i32 %55, 0
  br i1 %56, label %57, label %70

57:                                               ; preds = %53
  %58 = load i32, ptr %5, align 4, !tbaa !10
  %59 = and i32 %58, 4
  %60 = icmp eq i32 %59, 0
  br i1 %60, label %69, label %61

61:                                               ; preds = %57
  %62 = load ptr, ptr %6, align 8, !tbaa !3
  %63 = getelementptr inbounds nuw %struct.dsa_st, ptr %62, i32 0, i32 4
  %64 = load ptr, ptr %4, align 8, !tbaa !3
  %65 = getelementptr inbounds nuw %struct.dsa_st, ptr %64, i32 0, i32 4
  %66 = load ptr, ptr %65, align 8, !tbaa !29
  %67 = call i32 @dsa_bn_dup_check(ptr noundef %63, ptr noundef %66)
  %68 = icmp ne i32 %67, 0
  br i1 %68, label %70, label %69

69:                                               ; preds = %61, %57
  br label %80

70:                                               ; preds = %61, %53
  %71 = load ptr, ptr %6, align 8, !tbaa !3
  %72 = getelementptr inbounds nuw %struct.dsa_st, ptr %71, i32 0, i32 8
  %73 = load ptr, ptr %4, align 8, !tbaa !3
  %74 = getelementptr inbounds nuw %struct.dsa_st, ptr %73, i32 0, i32 8
  %75 = call i32 @CRYPTO_dup_ex_data(i32 noundef 7, ptr noundef %72, ptr noundef %74)
  %76 = icmp ne i32 %75, 0
  br i1 %76, label %78, label %77

77:                                               ; preds = %70
  br label %80

78:                                               ; preds = %70
  %79 = load ptr, ptr %6, align 8, !tbaa !3
  store ptr %79, ptr %3, align 8
  store i32 1, ptr %7, align 4
  br label %82

80:                                               ; preds = %77, %69, %52, %30
  %81 = load ptr, ptr %6, align 8, !tbaa !3
  call void @DSA_free(ptr noundef %81)
  store ptr null, ptr %3, align 8
  store i32 1, ptr %7, align 4
  br label %82

82:                                               ; preds = %80, %78, %18, %11
  call void @llvm.lifetime.end.p0(i64 8, ptr %6) #4
  %83 = load ptr, ptr %3, align 8
  ret ptr %83
}