; Function Attrs: nounwind uwtable
define ptr @ossl_dsa_dup(ptr noundef %0, i32 noundef %1) local_unnamed_addr #0 {
  %3 = getelementptr inbounds nuw i8, ptr %0, i64 168
  %4 = load ptr, ptr %3, align 8, !tbaa !8
  %.not.i = icmp eq ptr %4, null
  br i1 %.not.i, label %ossl_dsa_is_foreign.exit, label %ossl_dsa_is_foreign.exit.thread

ossl_dsa_is_foreign.exit:                         ; preds = %2
  %5 = tail call ptr @DSA_get_method(ptr noundef nonnull %0) #3
  %6 = tail call ptr @DSA_OpenSSL() #3
  %.not2.i.not = icmp eq ptr %5, %6
  br i1 %.not2.i.not, label %7, label %ossl_dsa_is_foreign.exit.thread

7:                                                ; preds = %ossl_dsa_is_foreign.exit
  %8 = getelementptr inbounds nuw i8, ptr %0, i64 184
  %9 = load ptr, ptr %8, align 8, !tbaa !21
  %10 = tail call ptr @ossl_dsa_new(ptr noundef %9) #3
  %11 = icmp eq ptr %10, null
  br i1 %11, label %ossl_dsa_is_foreign.exit.thread, label %12

12:                                               ; preds = %7
  %13 = and i32 %1, 4
  %.not20 = icmp eq i32 %13, 0
  br i1 %.not20, label %18, label %14

14:                                               ; preds = %12
  %15 = getelementptr inbounds nuw i8, ptr %10, i64 8
  %16 = getelementptr inbounds nuw i8, ptr %0, i64 8
  %17 = tail call i32 @ossl_ffc_params_copy(ptr noundef nonnull %15, ptr noundef nonnull %16) #3
  %.not21 = icmp eq i32 %17, 0
  br i1 %.not21, label %dsa_bn_dup_check.exit.thread, label %.thread

18:                                               ; preds = %12
  %19 = getelementptr inbounds nuw i8, ptr %0, i64 120
  %20 = load i32, ptr %19, align 8, !tbaa !22
  %21 = getelementptr inbounds nuw i8, ptr %10, i64 120
  store i32 %20, ptr %21, align 8, !tbaa !22
  %22 = and i32 %1, 3
  %or.cond = icmp eq i32 %22, 0
  br i1 %or.cond, label %dsa_bn_dup_check.exit31, label %dsa_bn_dup_check.exit.thread

.thread:                                          ; preds = %14
  %23 = getelementptr inbounds nuw i8, ptr %0, i64 120
  %24 = load i32, ptr %23, align 8, !tbaa !22
  %25 = getelementptr inbounds nuw i8, ptr %10, i64 120
  store i32 %24, ptr %25, align 8, !tbaa !22
  %26 = and i32 %1, 2
  %.not2234 = icmp eq i32 %26, 0
  br i1 %.not2234, label %dsa_bn_dup_check.exit, label %27

27:                                               ; preds = %.thread
  %28 = getelementptr inbounds nuw i8, ptr %0, i64 104
  %29 = load ptr, ptr %28, align 8, !tbaa !23
  %.not.i27 = icmp eq ptr %29, null
  br i1 %.not.i27, label %dsa_bn_dup_check.exit, label %30

30:                                               ; preds = %27
  %31 = getelementptr inbounds nuw i8, ptr %10, i64 104
  %32 = tail call ptr @BN_dup(ptr noundef nonnull %29) #3
  store ptr %32, ptr %31, align 8, !tbaa !3
  %33 = icmp eq ptr %32, null
  br i1 %33, label %dsa_bn_dup_check.exit.thread, label %dsa_bn_dup_check.exit

dsa_bn_dup_check.exit:                            ; preds = %30, %27, %.thread
  %34 = and i32 %1, 1
  %.not24 = icmp eq i32 %34, 0
  br i1 %.not24, label %dsa_bn_dup_check.exit31, label %35

35:                                               ; preds = %dsa_bn_dup_check.exit
  %36 = getelementptr inbounds nuw i8, ptr %0, i64 112
  %37 = load ptr, ptr %36, align 8, !tbaa !24
  %.not.i29 = icmp eq ptr %37, null
  br i1 %.not.i29, label %dsa_bn_dup_check.exit31, label %38

38:                                               ; preds = %35
  %39 = getelementptr inbounds nuw i8, ptr %10, i64 112
  %40 = tail call ptr @BN_dup(ptr noundef nonnull %37) #3
  store ptr %40, ptr %39, align 8, !tbaa !3
  %41 = icmp eq ptr %40, null
  br i1 %41, label %dsa_bn_dup_check.exit.thread, label %dsa_bn_dup_check.exit31

dsa_bn_dup_check.exit31:                          ; preds = %18, %38, %35, %dsa_bn_dup_check.exit
  %42 = getelementptr inbounds nuw i8, ptr %10, i64 144
  %43 = getelementptr inbounds nuw i8, ptr %0, i64 144
  %44 = tail call i32 @CRYPTO_dup_ex_data(i32 noundef 7, ptr noundef nonnull %42, ptr noundef nonnull %43) #3
  %.not26 = icmp eq i32 %44, 0
  br i1 %.not26, label %dsa_bn_dup_check.exit.thread, label %ossl_dsa_is_foreign.exit.thread

dsa_bn_dup_check.exit.thread:                     ; preds = %38, %30, %18, %dsa_bn_dup_check.exit31, %14
  tail call void @DSA_free(ptr noundef nonnull %10) #3
  br label %ossl_dsa_is_foreign.exit.thread

ossl_dsa_is_foreign.exit.thread:                  ; preds = %2, %dsa_bn_dup_check.exit31, %7, %ossl_dsa_is_foreign.exit, %dsa_bn_dup_check.exit.thread
  %.0 = phi ptr [ null, %dsa_bn_dup_check.exit.thread ], [ null, %ossl_dsa_is_foreign.exit ], [ null, %7 ], [ %10, %dsa_bn_dup_check.exit31 ], [ null, %2 ]
  ret ptr %.0
}